target datalayout = "e-m:e-p270:32:32-p271:32:32-p272:64:64-i64:64-i128:128-f80:128-n8:16:32:64-S128"
target triple = "x86_64-pc-linux-gnu"

%struct.ident_t = type { i32, i32, i32, i32, ptr }

@1 = private unnamed_addr constant %struct.ident_t { i32 0, i32 514, i32 0, i32 22, ptr @0 }, align 8
@2 = private unnamed_addr constant %struct.ident_t { i32 0, i32 66, i32 0, i32 22, ptr @0 }, align 8

; Function Attrs: alwaysinline norecurse nounwind uwtable
define internal void @densmatr_applyDiagonalOpLocal.omp_outlined(ptr noalias noundef %0, ptr noalias noundef %1, ptr noundef nonnull align 8 dereferenceable(8) %2, ptr noundef nonnull align 8 dereferenceable(8) %3, ptr noundef nonnull align 8 dereferenceable(8) %4, ptr noundef nonnull align 8 dereferenceable(8) %5, ptr noundef nonnull align 4 dereferenceable(4) %6, ptr noundef nonnull align 8 dereferenceable(8) %7) #2 {
  %9 = alloca ptr, align 8
  %10 = alloca ptr, align 8
  %11 = alloca ptr, align 8
  %12 = alloca ptr, align 8
  %13 = alloca ptr, align 8
  %14 = alloca ptr, align 8
  %15 = alloca ptr, align 8
  %16 = alloca ptr, align 8
  %17 = alloca double, align 8
  %18 = alloca double, align 8
  %19 = alloca double, align 8
  %20 = alloca double, align 8
  %21 = alloca i64, align 8
  %22 = alloca i64, align 8
  %23 = alloca i64, align 8
  %24 = alloca i64, align 8
  %25 = alloca i64, align 8
  %26 = alloca i64, align 8
  %27 = alloca i64, align 8
  %28 = alloca i32, align 4
  %29 = alloca i64, align 8
  store ptr %0, ptr %9, align 8, !tbaa !19
  store ptr %1, ptr %10, align 8, !tbaa !19
  store ptr %2, ptr %11, align 8, !tbaa !21
  store ptr %3, ptr %12, align 8, !tbaa !33
  store ptr %4, ptr %13, align 8, !tbaa !33
  store ptr %5, ptr %14, align 8, !tbaa !33
  store ptr %6, ptr %15, align 8, !tbaa !19
  store ptr %7, ptr %16, align 8, !tbaa !33
  %30 = load ptr, ptr %11, align 8, !tbaa !21
  %31 = load ptr, ptr %12, align 8, !tbaa !33
  %32 = load ptr, ptr %13, align 8, !tbaa !33
  %33 = load ptr, ptr %14, align 8, !tbaa !33
  %34 = load ptr, ptr %15, align 8, !tbaa !19
  %35 = load ptr, ptr %16, align 8, !tbaa !33
  call void @llvm.lifetime.start.p0(i64 8, ptr %17) #3
  call void @llvm.lifetime.start.p0(i64 8, ptr %18) #3
  call void @llvm.lifetime.start.p0(i64 8, ptr %19) #3
  call void @llvm.lifetime.start.p0(i64 8, ptr %20) #3
  call void @llvm.lifetime.start.p0(i64 8, ptr %21) #3
  call void @llvm.lifetime.start.p0(i64 8, ptr %22) #3
  %36 = load i64, ptr %30, align 8, !tbaa !4
  store i64 %36, ptr %22, align 8, !tbaa !4
  call void @llvm.lifetime.start.p0(i64 8, ptr %23) #3
  %37 = load i64, ptr %22, align 8, !tbaa !4
  %38 = sub nsw i64 %37, 0
  %39 = sdiv i64 %38, 1
  %40 = sub nsw i64 %39, 1
  store i64 %40, ptr %23, align 8, !tbaa !4
  call void @llvm.lifetime.start.p0(i64 8, ptr %24) #3
  store i64 0, ptr %24, align 8, !tbaa !4
  call void @llvm.lifetime.end.p0(i64 8, ptr %24) #3
  %41 = load i64, ptr %22, align 8, !tbaa !4
  %42 = icmp slt i64 0, %41
  br i1 %42, label %43, label %115

43:                                               ; preds = %8
  call void @llvm.lifetime.start.p0(i64 8, ptr %25) #3
  store i64 0, ptr %25, align 8, !tbaa !4
  call void @llvm.lifetime.start.p0(i64 8, ptr %26) #3
  %44 = load i64, ptr %23, align 8, !tbaa !4
  store i64 %44, ptr %26, align 8, !tbaa !4
  call void @llvm.lifetime.start.p0(i64 8, ptr %27) #3
  store i64 1, ptr %27, align 8, !tbaa !4
  call void @llvm.lifetime.start.p0(i64 4, ptr %28) #3
  store i32 0, ptr %28, align 4, !tbaa !8
  call void @llvm.lifetime.start.p0(i64 8, ptr %29) #3
  %45 = load ptr, ptr %9, align 8
  %46 = load i32, ptr %45, align 4, !tbaa !8
  call void @__kmpc_for_static_init_8(ptr @1, i32 %46, i32 34, ptr %28, ptr %25, ptr %26, ptr %27, i64 1, i64 1)
  %47 = load i64, ptr %26, align 8, !tbaa !4
  %48 = load i64, ptr %23, align 8, !tbaa !4
  %49 = icmp sgt i64 %47, %48
  br i1 %49, label %50, label %52

50:                                               ; preds = %43
  %51 = load i64, ptr %23, align 8, !tbaa !4
  br label %54

52:                                               ; preds = %43
  %53 = load i64, ptr %26, align 8, !tbaa !4
  br label %54

54:                                               ; preds = %52, %50
  %55 = phi i64 [ %51, %50 ], [ %53, %52 ]
  store i64 %55, ptr %26, align 8, !tbaa !4
  %56 = load i64, ptr %25, align 8, !tbaa !4
  store i64 %56, ptr %21, align 8, !tbaa !4
  br label %57

57:                                               ; preds = %108, %54
  %58 = load i64, ptr %21, align 8, !tbaa !4
  %59 = load i64, ptr %26, align 8, !tbaa !4
  %60 = icmp sle i64 %58, %59
  br i1 %60, label %62, label %61

61:                                               ; preds = %57
  br label %111

62:                                               ; preds = %57
  %63 = load i64, ptr %21, align 8, !tbaa !4
  %64 = mul nsw i64 %63, 1
  %65 = add nsw i64 0, %64
  store i64 %65, ptr %29, align 8, !tbaa !4
  %66 = load ptr, ptr %31, align 8, !tbaa !25
  %67 = load i64, ptr %29, align 8, !tbaa !4
  %68 = getelementptr inbounds double, ptr %66, i64 %67
  %69 = load double, ptr %68, align 8, !tbaa !10
  store double %69, ptr %17, align 8, !tbaa !10
  %70 = load ptr, ptr %32, align 8, !tbaa !25
  %71 = load i64, ptr %29, align 8, !tbaa !4
  %72 = getelementptr inbounds double, ptr %70, i64 %71
  %73 = load double, ptr %72, align 8, !tbaa !10
  store double %73, ptr %18, align 8, !tbaa !10
  %74 = load ptr, ptr %33, align 8, !tbaa !25
  %75 = load i64, ptr %29, align 8, !tbaa !4
  %76 = load i32, ptr %34, align 4, !tbaa !8
  %77 = sext i32 %76 to i64
  %78 = srem i64 %75, %77
  %79 = getelementptr inbounds double, ptr %74, i64 %78
  %80 = load double, ptr %79, align 8, !tbaa !10
  store double %80, ptr %19, align 8, !tbaa !10
  %81 = load ptr, ptr %35, align 8, !tbaa !25
  %82 = load i64, ptr %29, align 8, !tbaa !4
  %83 = load i32, ptr %34, align 4, !tbaa !8
  %84 = sext i32 %83 to i64
  %85 = srem i64 %82, %84
  %86 = getelementptr inbounds double, ptr %81, i64 %85
  %87 = load double, ptr %86, align 8, !tbaa !10
  store double %87, ptr %20, align 8, !tbaa !10
  %88 = load double, ptr %17, align 8, !tbaa !10
  %89 = load double, ptr %19, align 8, !tbaa !10
  %90 = load double, ptr %18, align 8, !tbaa !10
  %91 = load double, ptr %20, align 8, !tbaa !10
  %92 = fmul double %90, %91
  %93 = fneg double %92
  %94 = call double @llvm.fmuladd.f64(double %88, double %89, double %93)
  %95 = load ptr, ptr %31, align 8, !tbaa !25
  %96 = load i64, ptr %29, align 8, !tbaa !4
  %97 = getelementptr inbounds double, ptr %95, i64 %96
  store double %94, ptr %97, align 8, !tbaa !10
  %98 = load double, ptr %17, align 8, !tbaa !10
  %99 = load double, ptr %20, align 8, !tbaa !10
  %100 = load double, ptr %18, align 8, !tbaa !10
  %101 = load double, ptr %19, align 8, !tbaa !10
  %102 = fmul double %100, %101
  %103 = call double @llvm.fmuladd.f64(double %98, double %99, double %102)
  %104 = load ptr, ptr %32, align 8, !tbaa !25
  %105 = load i64, ptr %29, align 8, !tbaa !4
  %106 = getelementptr inbounds double, ptr %104, i64 %105
  store double %103, ptr %106, align 8, !tbaa !10
  br label %107

107:                                              ; preds = %62
  br label %108

108:                                              ; preds = %107
  %109 = load i64, ptr %21, align 8, !tbaa !4
  %110 = add nsw i64 %109, 1
  store i64 %110, ptr %21, align 8, !tbaa !4
  br label %57

111:                                              ; preds = %61
  br label %112

112:                                              ; preds = %111
  %113 = load ptr, ptr %9, align 8
  %114 = load i32, ptr %113, align 4, !tbaa !8
  call void @__kmpc_for_static_fini(ptr @1, i32 %114)
  call void @llvm.lifetime.end.p0(i64 8, ptr %29) #3
  call void @llvm.lifetime.end.p0(i64 4, ptr %28) #3
  call void @llvm.lifetime.end.p0(i64 8, ptr %27) #3
  call void @llvm.lifetime.end.p0(i64 8, ptr %26) #3
  call void @llvm.lifetime.end.p0(i64 8, ptr %25) #3
  br label %115

115:                                              ; preds = %112, %8
  call void @llvm.lifetime.end.p0(i64 8, ptr %23) #3
  call void @llvm.lifetime.end.p0(i64 8, ptr %22) #3
  call void @llvm.lifetime.end.p0(i64 8, ptr %21) #3
  %116 = load ptr, ptr %9, align 8
  %117 = load i32, ptr %116, align 4, !tbaa !8
  call void @__kmpc_barrier(ptr @2, i32 %117)
  call void @llvm.lifetime.end.p0(i64 8, ptr %20) #3
  call void @llvm.lifetime.end.p0(i64 8, ptr %19) #3
  call void @llvm.lifetime.end.p0(i64 8, ptr %18) #3
  call void @llvm.lifetime.end.p0(i64 8, ptr %17) #3
  ret void
}